Certificate:
    Data:
        Version: 3 (0x2)
        Serial Number: 2 (0x2)
        Signature Algorithm: sha256WithRSAEncryption
        Issuer: C=US, ST=North Carolina, L=Raleigh, O=Triangle MicroWorks, Inc., CN=Root CA
        Validity
            Not Before: Mar 12 15:48:40 2021 GMT
            Not After : Jul 27 15:48:40 2048 GMT
        Subject: CN=TLS, ST=North Carolina, C=US, O=Triangle MicroWorks, Inc.
        Subject Public Key Info:
            Public Key Algorithm: rsaEncryption
                RSA Public-Key: (2048 bit)
                Modulus:
                    00:aa:cc:9b:88:1d:0d:a0:e1:54:89:d5:ff:42:1b:
                    04:6e:a1:f2:bc:6e:9b:c9:f3:fc:ed:78:d9:a4:32:
                    b4:63:05:c5:ee:35:4d:c5:ca:b5:4a:53:eb:a9:84:
                    d1:d2:ee:fc:0e:1f:a7:9e:16:d5:0a:25:89:d9:8c:
                    86:29:80:3e:1e:76:ab:cc:37:f3:6e:8a:63:d9:32:
                    d6:18:30:e5:94:e5:6d:32:28:97:5e:6f:db:63:b5:
                    8e:72:64:6c:55:d2:ac:d1:4f:24:3a:b9:1c:4e:05:
                    c1:d7:6f:fa:85:ea:fb:a3:8a:7d:0b:57:64:94:8b:
                    1b:d9:cf:72:1f:53:d9:e3:8b:14:4a:63:9c:a0:f4:
                    ab:95:6b:75:12:14:3f:fc:1e:a7:c1:cb:32:1e:2f:
                    c7:4d:28:29:da:83:db:54:bd:b2:41:6e:59:36:b0:
                    f7:f9:55:dd:84:40:31:03:fc:63:65:d1:ec:d3:18:
                    83:35:5e:45:c8:c9:ec:e8:11:05:8c:9f:82:4e:2e:
                    4c:c6:e0:3a:39:a6:ce:d1:88:74:0e:02:af:e5:30:
                    ee:cd:9e:91:5e:96:f4:98:9e:f9:d7:e6:40:b3:65:
                    bc:6d:cd:03:be:75:5b:85:d2:d2:6c:0c:2e:00:39:
                    98:42:ef:cf:b1:16:d7:a0:3d:1c:63:3a:49:24:70:
                    b8:8b
                Exponent: 65537 (0x10001)
        X509v3 extensions:
            X509v3 Basic Constraints: 
                CA:TRUE
            X509v3 Subject Key Identifier: 
                43:0E:96:8A:63:98:59:5C:39:66:25:1F:92:B4:13:BA:34:23:CD:E2
            X509v3 Authority Key Identifier: 
                keyid:9F:36:8C:57:91:CB:B1:20:F4:EB:B2:CC:F1:60:1E:04:B7:E5:65:06
                DirName:/C=US/ST=North Carolina/L=Raleigh/O=Triangle MicroWorks, Inc./CN=Root CA
                serial:78:FB:CF:CA:63:D2:A7:66:71:29:BD:9E:6D:2A:93:BB:17:F7:1A:D4

    Signature Algorithm: sha256WithRSAEncryption
         ad:a6:30:d7:3b:a6:16:46:73:f6:49:e1:9f:ff:82:f6:2b:7c:
         c9:78:c8:9f:b0:cc:c9:40:2c:49:85:e0:2c:9a:d2:f3:9c:4a:
         f7:c0:01:bb:d0:9f:a1:f4:25:0c:85:56:27:32:58:9f:e6:3a:
         de:4b:0f:70:7f:6f:1c:91:72:56:cc:2e:ba:e3:58:92:44:1b:
         2b:43:7d:45:e1:cf:f1:d1:a1:50:06:3d:18:b1:19:8c:4a:a3:
         be:d3:dd:fe:ab:de:4d:39:55:09:74:f9:a8:cc:31:dd:fa:4d:
         9c:68:e2:eb:d7:bb:3f:cc:e3:4f:3b:3c:60:b3:49:20:6b:ff:
         44:79:fa:45:d3:4c:8e:17:51:a0:9d:76:e5:69:03:5c:d6:14:
         ab:21:de:43:38:04:3d:b6:d8:37:b7:cc:f8:80:52:06:3a:af:
         6e:ba:c1:4c:fa:87:40:61:02:9b:44:7e:35:d1:0f:3c:c9:54:
         ad:e5:e4:a6:6d:86:49:2d:6f:52:0f:47:c6:b0:b3:01:e3:90:
         1b:bf:ed:97:2c:74:04:9c:6a:88:e3:58:62:38:b9:26:07:26:
         f0:9d:1a:b9:c9:eb:86:2e:c6:ae:07:9e:59:1f:49:cc:d6:b0:
         ea:10:32:a2:68:04:d6:42:f6:59:37:d8:86:eb:32:07:85:b2:
         ed:93:58:14
-----BEGIN CERTIFICATE-----
MIIEIDCCAwigAwIBAgIBAjANBgkqhkiG9w0BAQsFADBuMQswCQYDVQQGEwJVUzEX
MBUGA1UECAwOTm9ydGggQ2Fyb2xpbmExEDAOBgNVBAcMB1JhbGVpZ2gxIjAgBgNV
BAoMGVRyaWFuZ2xlIE1pY3JvV29ya3MsIEluYy4xEDAOBgNVBAMMB1Jvb3QgQ0Ew
HhcNMjEwMzEyMTU0ODQwWhcNNDgwNzI3MTU0ODQwWjBYMQwwCgYDVQQDDANUTFMx
FzAVBgNVBAgMDk5vcnRoIENhcm9saW5hMQswCQYDVQQGEwJVUzEiMCAGA1UECgwZ
VHJpYW5nbGUgTWljcm9Xb3JrcywgSW5jLjCCASIwDQYJKoZIhvcNAQEBBQADggEP
ADCCAQoCggEBAKrMm4gdDaDhVInV/0IbBG6h8rxum8nz/O142aQytGMFxe41TcXK
tUpT66mE0dLu/A4fp54W1QolidmMhimAPh52q8w3826KY9ky1hgw5ZTlbTIol15v
22O1jnJkbFXSrNFPJDq5HE4Fwddv+oXq+6OKfQtXZJSLG9nPch9T2eOLFEpjnKD0
q5VrdRIUP/wep8HLMh4vx00oKdqD21S9skFuWTaw9/lV3YRAMQP8Y2XR7NMYgzVe
RcjJ7OgRBYyfgk4uTMbgOjmmztGIdA4Cr+Uw7s2ekV6W9Jie+dfmQLNlvG3NA751
W4XS0mwMLgA5mELvz7EW16A9HGM6SSRwuIsCAwEAAaOB3jCB2zAMBgNVHRMEBTAD
AQH/MB0GA1UdDgQWBBRDDpaKY5hZXDlmJR+StBO6NCPN4jCBqwYDVR0jBIGjMIGg
gBSfNoxXkcuxIPTrsszxYB4Et+VlBqFypHAwbjELMAkGA1UEBhMCVVMxFzAVBgNV
BAgMDk5vcnRoIENhcm9saW5hMRAwDgYDVQQHDAdSYWxlaWdoMSIwIAYDVQQKDBlU
cmlhbmdsZSBNaWNyb1dvcmtzLCBJbmMuMRAwDgYDVQQDDAdSb290IENBghR4+8/K
Y9KnZnEpvZ5tKpO7F/ca1DANBgkqhkiG9w0BAQsFAAOCAQEAraYw1zumFkZz9knh
n/+C9it8yXjIn7DMyUAsSYXgLJrS85xK98ABu9CfofQlDIVWJzJYn+Y63ksPcH9v
HJFyVswuuuNYkkQbK0N9ReHP8dGhUAY9GLEZjEqjvtPd/qveTTlVCXT5qMwx3fpN
nGji69e7P8zjTzs8YLNJIGv/RHn6RdNMjhdRoJ125WkDXNYUqyHeQzgEPbbYN7fM
+IBSBjqvbrrBTPqHQGECm0R+NdEPPMlUreXkpm2GSS1vUg9HxrCzAeOQG7/tlyx0
BJxqiONYYji5Jgcm8J0aucnrhi7GrgeeWR9JzNaw6hAyomgE1kL2WTfYhusyB4Wy
7ZNYFA==
-----END CERTIFICATE-----
