Certificate:
    Data:
        Version: 3 (0x2)
        Serial Number: 5 (0x5)
        Signature Algorithm: sha256WithRSAEncryption
        Issuer: C=US, ST=North Carolina, L=Raleigh, O=Triangle MicroWorks, Inc., CN=Root CA
        Validity
            Not Before: Mar 12 15:52:30 2021 GMT
            Not After : Jul 27 15:52:30 2048 GMT
        Subject: CN=TLS, ST=North Carolina, C=US, O=Triangle MicroWorks, Inc.
        Subject Public Key Info:
            Public Key Algorithm: rsaEncryption
                RSA Public-Key: (2048 bit)
                Modulus:
                    00:b5:f5:76:66:b2:f6:b5:8f:f9:ba:c0:be:d6:62:
                    fd:0b:07:f0:aa:11:fb:7b:95:53:a5:9a:be:8a:f6:
                    08:93:1e:ba:9e:06:09:82:8c:40:71:d5:8a:79:8d:
                    83:ac:7d:dc:e5:5c:db:8d:ba:31:e8:e2:1f:43:5d:
                    ed:f3:0d:6a:7e:82:74:3b:d0:f0:07:0e:c2:15:cb:
                    89:9e:15:ce:69:e5:2b:1f:d5:b5:28:9b:9f:9d:6d:
                    65:4a:c7:ed:7c:da:a8:0b:64:33:9d:ab:36:c1:29:
                    05:d0:83:63:1c:81:ea:c4:7d:d6:42:f4:51:99:e4:
                    6a:ac:f7:16:2f:b9:61:35:a1:88:f9:2a:40:eb:10:
                    15:35:1c:9c:c5:9f:26:1c:0e:5b:9d:a3:45:48:ac:
                    31:c2:58:2b:9a:ba:cb:7f:0a:37:e5:f3:a1:01:74:
                    b4:d6:9c:cf:87:c9:67:09:f7:98:13:2e:c7:47:6f:
                    5a:02:ef:15:4c:b1:17:30:1a:fc:aa:e3:a6:35:f2:
                    de:3f:b7:91:5d:b7:e3:26:83:a5:35:b2:ca:47:88:
                    76:d7:6d:b2:eb:87:18:e0:8a:c4:a6:b0:1e:5a:73:
                    06:bd:fd:2f:e7:c2:a2:b4:89:f9:db:a0:27:ea:79:
                    d3:93:b6:f0:79:98:9f:50:66:86:f6:e4:ac:a2:fc:
                    41:c5
                Exponent: 65537 (0x10001)
        X509v3 extensions:
            X509v3 Basic Constraints: 
                CA:TRUE
            X509v3 Subject Key Identifier: 
                B5:1E:A8:57:FC:B5:F6:C5:E8:96:87:32:40:38:9D:FD:AB:5E:7B:09
            X509v3 Authority Key Identifier: 
                keyid:9F:36:8C:57:91:CB:B1:20:F4:EB:B2:CC:F1:60:1E:04:B7:E5:65:06
                DirName:/C=US/ST=North Carolina/L=Raleigh/O=Triangle MicroWorks, Inc./CN=Root CA
                serial:78:FB:CF:CA:63:D2:A7:66:71:29:BD:9E:6D:2A:93:BB:17:F7:1A:D4

    Signature Algorithm: sha256WithRSAEncryption
         aa:11:8f:e2:c3:95:d1:83:0e:2d:42:3a:6f:e7:ca:ee:b9:dc:
         ab:83:48:e1:59:e6:46:17:35:12:9a:42:dd:6a:98:bd:36:e1:
         e4:cc:0f:20:b5:98:44:d0:ef:66:c3:fb:09:cf:64:68:c9:90:
         62:d0:62:c2:c7:e0:ca:99:35:fa:dd:69:85:0a:20:8f:3d:fd:
         50:c8:f9:9c:51:41:10:1a:d8:5f:57:93:d8:c9:a0:56:3b:30:
         2a:c4:e8:18:29:4f:a9:33:01:c1:e3:05:02:35:d9:54:41:dd:
         bf:cc:b4:4a:a3:07:c7:bf:38:52:6f:b1:37:06:8f:2b:e5:2a:
         0e:7f:a3:59:97:c3:42:1e:13:e1:45:c1:f5:1d:6a:54:fb:74:
         9e:c8:ac:32:f7:03:b9:59:a4:a5:35:6b:68:9c:4d:7c:63:58:
         8e:cf:e3:8e:8c:30:90:6e:77:cb:c0:44:fc:73:40:d8:ba:77:
         1f:10:a1:4b:7a:29:5b:ba:9b:9b:7a:bf:a4:3c:bc:af:46:d4:
         9e:14:5a:57:f8:7f:2a:49:1e:5d:46:5a:b9:56:c4:b3:e1:18:
         21:d6:a9:6a:23:7a:22:08:80:d3:87:35:50:e1:50:aa:f9:d8:
         76:10:3f:04:b2:a3:a1:ea:9f:fa:42:f9:0a:13:2d:30:49:c6:
         2a:99:56:98
-----BEGIN CERTIFICATE-----
MIIEIDCCAwigAwIBAgIBBTANBgkqhkiG9w0BAQsFADBuMQswCQYDVQQGEwJVUzEX
MBUGA1UECAwOTm9ydGggQ2Fyb2xpbmExEDAOBgNVBAcMB1JhbGVpZ2gxIjAgBgNV
BAoMGVRyaWFuZ2xlIE1pY3JvV29ya3MsIEluYy4xEDAOBgNVBAMMB1Jvb3QgQ0Ew
HhcNMjEwMzEyMTU1MjMwWhcNNDgwNzI3MTU1MjMwWjBYMQwwCgYDVQQDDANUTFMx
FzAVBgNVBAgMDk5vcnRoIENhcm9saW5hMQswCQYDVQQGEwJVUzEiMCAGA1UECgwZ
VHJpYW5nbGUgTWljcm9Xb3JrcywgSW5jLjCCASIwDQYJKoZIhvcNAQEBBQADggEP
ADCCAQoCggEBALX1dmay9rWP+brAvtZi/QsH8KoR+3uVU6Wavor2CJMeup4GCYKM
QHHVinmNg6x93OVc2426MejiH0Nd7fMNan6CdDvQ8AcOwhXLiZ4VzmnlKx/VtSib
n51tZUrH7XzaqAtkM52rNsEpBdCDYxyB6sR91kL0UZnkaqz3Fi+5YTWhiPkqQOsQ
FTUcnMWfJhwOW52jRUisMcJYK5q6y38KN+XzoQF0tNacz4fJZwn3mBMux0dvWgLv
FUyxFzAa/KrjpjXy3j+3kV234yaDpTWyykeIdtdtsuuHGOCKxKawHlpzBr39L+fC
orSJ+dugJ+p505O28HmYn1BmhvbkrKL8QcUCAwEAAaOB3jCB2zAMBgNVHRMEBTAD
AQH/MB0GA1UdDgQWBBS1HqhX/LX2xeiWhzJAOJ39q157CTCBqwYDVR0jBIGjMIGg
gBSfNoxXkcuxIPTrsszxYB4Et+VlBqFypHAwbjELMAkGA1UEBhMCVVMxFzAVBgNV
BAgMDk5vcnRoIENhcm9saW5hMRAwDgYDVQQHDAdSYWxlaWdoMSIwIAYDVQQKDBlU
cmlhbmdsZSBNaWNyb1dvcmtzLCBJbmMuMRAwDgYDVQQDDAdSb290IENBghR4+8/K
Y9KnZnEpvZ5tKpO7F/ca1DANBgkqhkiG9w0BAQsFAAOCAQEAqhGP4sOV0YMOLUI6
b+fK7rncq4NI4VnmRhc1EppC3WqYvTbh5MwPILWYRNDvZsP7Cc9kaMmQYtBiwsfg
ypk1+t1phQogjz39UMj5nFFBEBrYX1eT2MmgVjswKsToGClPqTMBweMFAjXZVEHd
v8y0SqMHx784Um+xNwaPK+UqDn+jWZfDQh4T4UXB9R1qVPt0nsisMvcDuVmkpTVr
aJxNfGNYjs/jjowwkG53y8BE/HNA2Lp3HxChS3opW7qbm3q/pDy8r0bUnhRaV/h/
KkkeXUZauVbEs+EYIdapaiN6IgiA04c1UOFQqvnYdhA/BLKjoeqf+kL5ChMtMEnG
KplWmA==
-----END CERTIFICATE-----
